target datalayout = "e-m:e-p270:32:32-p271:32:32-p272:64:64-i64:64-i128:128-f80:128-n8:16:32:64-S128"
target triple = "x86_64-pc-linux-gnu"

%struct.rb_data_type_struct = type { ptr, %struct.anon, ptr, ptr, i64 }
%struct.anon = type { ptr, ptr, ptr, ptr, [1 x ptr] }
%struct.RTypedData = type { %struct.RBasic, ptr, i64, ptr }
%struct.RBasic = type { i64, i64 }

@ossl_bn_type = internal constant %struct.rb_data_type_struct { ptr @.str.62, %struct.anon { ptr null, ptr @ossl_bn_free, ptr null, ptr null, [1 x ptr] zeroinitializer }, ptr null, ptr null, i64 289 }, align 8
@eBNError = internal global i64 0, align 8
@rb_eRuntimeError = external global i64, align 8
@.str = private unnamed_addr constant [23 x i8] c"BN wasn't initialized!\00", align 1

; Function Attrs: inlinehint nounwind sspstrong willreturn memory(none) uwtable
define internal zeroext i1 @RB_FIXNUM_P(i64 noundef %0) #4 {
  %2 = alloca i64, align 8
  store i64 %0, ptr %2, align 8, !tbaa !11
  %3 = load i64, ptr %2, align 8, !tbaa !11
  %4 = and i64 %3, 1
  %5 = icmp ne i64 %4, 0
  ret i1 %5
}

; Function Attrs: inlinehint nounwind sspstrong uwtable
define internal i32 @rb_num2int_inline(i64 noundef %0) #5 {
  %2 = alloca i64, align 8
  %3 = alloca i64, align 8
  store i64 %0, ptr %2, align 8, !tbaa !11
  call void @llvm.lifetime.start.p0(i64 8, ptr %3) #20
  %4 = load i64, ptr %2, align 8, !tbaa !11
  %5 = call zeroext i1 @RB_FIXNUM_P(i64 noundef %4) #22
  br i1 %5, label %6, label %9

6:                                                ; preds = %1
  %7 = load i64, ptr %2, align 8, !tbaa !11
  %8 = call i64 @rb_fix2int(i64 noundef %7)
  store i64 %8, ptr %3, align 8, !tbaa !11
  br label %12

9:                                                ; preds = %1
  %10 = load i64, ptr %2, align 8, !tbaa !11
  %11 = call i64 @rb_num2int(i64 noundef %10)
  store i64 %11, ptr %3, align 8, !tbaa !11
  br label %12

12:                                               ; preds = %9, %6
  %13 = load i64, ptr %3, align 8, !tbaa !11
  %14 = trunc i64 %13 to i32
  call void @llvm.lifetime.end.p0(i64 8, ptr %3) #20
  ret i32 %14
}

; Function Attrs: nounwind sspstrong uwtable
define internal i64 @ossl_bn_rshift(i64 noundef %0, i64 noundef %1) #0 {
  %3 = alloca i64, align 8
  %4 = alloca i64, align 8
  %5 = alloca ptr, align 8
  %6 = alloca ptr, align 8
  %7 = alloca i32, align 4
  %8 = alloca i64, align 8
  store i64 %0, ptr %3, align 8, !tbaa !11
  store i64 %1, ptr %4, align 8, !tbaa !11
  call void @llvm.lifetime.start.p0(i64 8, ptr %5) #20
  call void @llvm.lifetime.start.p0(i64 8, ptr %6) #20
  call void @llvm.lifetime.start.p0(i64 4, ptr %7) #20
  call void @llvm.lifetime.start.p0(i64 8, ptr %8) #20
  %9 = load i64, ptr %4, align 8, !tbaa !11
  %10 = call i32 @rb_num2int_inline(i64 noundef %9)
  store i32 %10, ptr %7, align 4, !tbaa !23
  br label %11

11:                                               ; preds = %2
  %12 = load i64, ptr %3, align 8, !tbaa !11
  %13 = call ptr @rb_check_typeddata(i64 noundef %12, ptr noundef @ossl_bn_type)
  store ptr %13, ptr %5, align 8, !tbaa !6
  %14 = load ptr, ptr %5, align 8, !tbaa !6
  %15 = icmp ne ptr %14, null
  br i1 %15, label %18, label %16

16:                                               ; preds = %11
  %17 = load i64, ptr @rb_eRuntimeError, align 8, !tbaa !11
  call void (i64, ptr, ...) @ossl_raise(i64 noundef %17, ptr noundef @.str) #21
  unreachable

18:                                               ; preds = %11
  br label %19

19:                                               ; preds = %18
  br label %20

20:                                               ; preds = %19
  %21 = load i64, ptr %3, align 8, !tbaa !11
  %22 = call i64 @rb_obj_class(i64 noundef %21)
  %23 = call i64 @rb_data_typed_object_wrap(i64 noundef %22, ptr noundef null, ptr noundef @ossl_bn_type)
  store i64 %23, ptr %8, align 8, !tbaa !11
  %24 = call ptr @BN_new()
  store ptr %24, ptr %6, align 8, !tbaa !6
  %25 = icmp ne ptr %24, null
  br i1 %25, label %28, label %26

26:                                               ; preds = %20
  %27 = load i64, ptr @eBNError, align 8, !tbaa !11
  call void (i64, ptr, ...) @ossl_raise(i64 noundef %27, ptr noundef null) #21
  unreachable

28:                                               ; preds = %20
  %29 = load ptr, ptr %6, align 8, !tbaa !6
  %30 = load ptr, ptr %5, align 8, !tbaa !6
  %31 = load i32, ptr %7, align 4, !tbaa !23
  %32 = call i32 @BN_rshift(ptr noundef %29, ptr noundef %30, i32 noundef %31)
  %33 = icmp sle i32 %32, 0
  br i1 %33, label %34, label %37

34:                                               ; preds = %28
  %35 = load ptr, ptr %6, align 8, !tbaa !6
  call void @BN_free(ptr noundef %35)
  %36 = load i64, ptr @eBNError, align 8, !tbaa !11
  call void (i64, ptr, ...) @ossl_raise(i64 noundef %36, ptr noundef null) #21
  unreachable

37:                                               ; preds = %28
  br label %38

38:                                               ; preds = %37
  %39 = load ptr, ptr %6, align 8, !tbaa !6
  %40 = icmp ne ptr %39, null
  br i1 %40, label %43, label %41

41:                                               ; preds = %38
  %42 = load i64, ptr @rb_eRuntimeError, align 8, !tbaa !11
  call void (i64, ptr, ...) @ossl_raise(i64 noundef %42, ptr noundef @.str) #21
  unreachable

43:                                               ; preds = %38
  %44 = load ptr, ptr %6, align 8, !tbaa !6
  %45 = load i64, ptr %8, align 8, !tbaa !11
  %46 = inttoptr i64 %45 to ptr
  %47 = getelementptr inbounds nuw %struct.RTypedData, ptr %46, i32 0, i32 3
  store ptr %44, ptr %47, align 8, !tbaa !13
  br label %48

48:                                               ; preds = %43
  br label %49

49:                                               ; preds = %48
  %50 = load i64, ptr %8, align 8, !tbaa !11
  call void @llvm.lifetime.end.p0(i64 8, ptr %8) #20
  call void @llvm.lifetime.end.p0(i64 4, ptr %7) #20
  call void @llvm.lifetime.end.p0(i64 8, ptr %6) #20
  call void @llvm.lifetime.end.p0(i64 8, ptr %5) #20
  ret i64 %50
}