; Function Attrs: nounwind sspstrong uwtable
define internal i64 @ossl_bn_rshift(i64 noundef %0, i64 noundef %1) #0 {
  %3 = and i64 %1, 1
  %.not.i = icmp eq i64 %3, 0
  br i1 %.not.i, label %6, label %4

4:                                                ; preds = %2
  %5 = tail call i64 @rb_fix2int(i64 noundef %1) #11
  br label %rb_num2int_inline.exit

6:                                                ; preds = %2
  %7 = tail call i64 @rb_num2int(i64 noundef %1) #11
  br label %rb_num2int_inline.exit

rb_num2int_inline.exit:                           ; preds = %4, %6
  %.0.i = phi i64 [ %5, %4 ], [ %7, %6 ]
  %8 = trunc i64 %.0.i to i32
  %9 = tail call ptr @rb_check_typeddata(i64 noundef %0, ptr noundef nonnull @ossl_bn_type) #11
  %.not = icmp eq ptr %9, null
  br i1 %.not, label %10, label %12

10:                                               ; preds = %rb_num2int_inline.exit
  %11 = load i64, ptr @rb_eRuntimeError, align 8, !tbaa !6
  tail call void (i64, ptr, ...) @ossl_raise(i64 noundef %11, ptr noundef nonnull @.str) #12
  unreachable

12:                                               ; preds = %rb_num2int_inline.exit
  %13 = tail call i64 @rb_obj_class(i64 noundef %0) #11
  %14 = tail call i64 @rb_data_typed_object_wrap(i64 noundef %13, ptr noundef null, ptr noundef nonnull @ossl_bn_type) #11
  %15 = tail call ptr @BN_new() #11
  %.not12 = icmp eq ptr %15, null
  br i1 %.not12, label %16, label %18

16:                                               ; preds = %12
  %17 = load i64, ptr @eBNError, align 8, !tbaa !6
  tail call void (i64, ptr, ...) @ossl_raise(i64 noundef %17, ptr noundef null) #12
  unreachable

18:                                               ; preds = %12
  %19 = tail call i32 @BN_rshift(ptr noundef nonnull %15, ptr noundef nonnull %9, i32 noundef %8) #11
  %20 = icmp slt i32 %19, 1
  br i1 %20, label %21, label %23

21:                                               ; preds = %18
  tail call void @BN_free(ptr noundef nonnull %15) #11
  %22 = load i64, ptr @eBNError, align 8, !tbaa !6
  tail call void (i64, ptr, ...) @ossl_raise(i64 noundef %22, ptr noundef null) #12
  unreachable

23:                                               ; preds = %18
  %24 = inttoptr i64 %14 to ptr
  %25 = getelementptr inbounds nuw i8, ptr %24, i64 32
  store ptr %15, ptr %25, align 8, !tbaa !10
  ret i64 %14
}